; Function Attrs: mustprogress uwtable
define hidden void @_ZN28horn_subsume_model_converter32add_default_false_interpretationEP4exprR3refI5modelE(ptr noundef nonnull readonly align 8 captures(none) dereferenceable(120) %0, ptr noundef %1, ptr noundef nonnull align 8 dereferenceable(8) %2) local_unnamed_addr #3 align 2 personality ptr @__gxx_personality_v0 {
  %4 = alloca %class.obj_mark, align 8
  %5 = alloca %"struct.horn_subsume_model_converter::add_default_proc", align 8
  call void @llvm.lifetime.start.p0(i64 16, ptr nonnull %5) #19
  %6 = getelementptr inbounds nuw i8, ptr %0, i64 32
  %7 = load ptr, ptr %6, align 8, !tbaa !21
  store ptr %7, ptr %5, align 8, !tbaa !48
  %8 = getelementptr inbounds nuw i8, ptr %5, i64 8
  store ptr %2, ptr %8, align 8, !tbaa !234
  call void @llvm.lifetime.start.p0(i64 24, ptr nonnull %4) #19
  %9 = getelementptr inbounds nuw i8, ptr %4, i64 8
  call void @llvm.memset.p0.i64(ptr noundef nonnull align 8 dereferenceable(16) %9, i8 0, i64 16, i1 false)
  invoke void @_Z18for_each_expr_coreIN28horn_subsume_model_converter16add_default_procE8obj_markI4expr10bit_vector14default_t2uintIS3_EELb0ELb0EEvRT_RT0_PS3_(ptr noundef nonnull align 8 dereferenceable(16) %5, ptr noundef nonnull align 8 dereferenceable(24) %4, ptr noundef %1)
          to label %10 unwind label %18

10:                                               ; preds = %3
  %11 = getelementptr inbounds nuw i8, ptr %4, i64 16
  %12 = load ptr, ptr %11, align 8, !tbaa !235
  %13 = icmp eq ptr %12, null
  br i1 %13, label %_Z13for_each_exprIN28horn_subsume_model_converter16add_default_procEEvRT_P4expr.exit, label %14

14:                                               ; preds = %10
  invoke void @_ZN6memory10deallocateEPv(ptr noundef nonnull %12)
          to label %_Z13for_each_exprIN28horn_subsume_model_converter16add_default_procEEvRT_P4expr.exit unwind label %15

15:                                               ; preds = %14
  %16 = landingpad { ptr, i32 }
          catch ptr null
  %17 = extractvalue { ptr, i32 } %16, 0
  call void @__clang_call_terminate(ptr %17) #20
  unreachable

18:                                               ; preds = %3
  %19 = landingpad { ptr, i32 }
          cleanup
  call void @_ZN8obj_markI4expr10bit_vector14default_t2uintIS0_EED2Ev(ptr noundef nonnull align 8 dereferenceable(24) %4) #19
  call void @llvm.lifetime.end.p0(i64 24, ptr nonnull %4) #19
  resume { ptr, i32 } %19

_Z13for_each_exprIN28horn_subsume_model_converter16add_default_procEEvRT_P4expr.exit: ; preds = %10, %14
  call void @llvm.lifetime.end.p0(i64 24, ptr nonnull %4) #19
  call void @llvm.lifetime.end.p0(i64 16, ptr nonnull %5) #19
  ret void
}